target datalayout = "e-m:e-p270:32:32-p271:32:32-p272:64:64-i64:64-i128:128-f80:128-n8:16:32:64-S128"
target triple = "x86_64-unknown-linux-gnu"

%"class.std::chrono::duration" = type { i64 }
%"class.proxygen::SessionPool" = type { %"class.proxygen::SessionHolder::Callback", ptr, i32, %"class.std::chrono::duration", %"class.std::chrono::duration", %"class.boost::intrusive::list", %"class.boost::intrusive::list", %"class.boost::intrusive::list", ptr, ptr, ptr }
%"class.proxygen::SessionHolder::Callback" = type { ptr }
%"class.boost::intrusive::list" = type { %"class.boost::intrusive::list_impl" }
%"class.boost::intrusive::list_impl" = type { %"struct.boost::intrusive::list_impl<boost::intrusive::mhtraits<proxygen::SessionHolder, boost::intrusive::list_member_hook<boost::intrusive::link_mode<boost::intrusive::safe_link>>, &proxygen::SessionHolder::listHook>, unsigned long, true, void>::data_t" }
%"struct.boost::intrusive::list_impl<boost::intrusive::mhtraits<proxygen::SessionHolder, boost::intrusive::list_member_hook<boost::intrusive::link_mode<boost::intrusive::safe_link>>, &proxygen::SessionHolder::listHook>, unsigned long, true, void>::data_t" = type { %"struct.boost::intrusive::list_impl<boost::intrusive::mhtraits<proxygen::SessionHolder, boost::intrusive::list_member_hook<boost::intrusive::link_mode<boost::intrusive::safe_link>>, &proxygen::SessionHolder::listHook>, unsigned long, true, void>::root_plus_size" }
%"struct.boost::intrusive::list_impl<boost::intrusive::mhtraits<proxygen::SessionHolder, boost::intrusive::list_member_hook<boost::intrusive::link_mode<boost::intrusive::safe_link>>, &proxygen::SessionHolder::listHook>, unsigned long, true, void>::root_plus_size" = type { %"struct.boost::intrusive::detail::size_holder", %"struct.boost::intrusive::detail::default_header_holder" }
%"struct.boost::intrusive::detail::size_holder" = type { i64 }
%"struct.boost::intrusive::detail::default_header_holder" = type { %"struct.boost::intrusive::list_node" }
%"struct.boost::intrusive::list_node" = type { ptr, ptr }

; Function Attrs: noreturn nounwind uwtable
define linkonce_odr hidden void @__clang_call_terminate(ptr noundef %0) #7 comdat {
  %2 = call ptr @__cxa_begin_catch(ptr %0) #3
  call void @_ZSt9terminatev() #15
  unreachable
}

; Function Attrs: mustprogress nounwind uwtable
define noundef i32 @_ZNK8proxygen11SessionPool20getNumActiveSessionsEv(ptr noundef nonnull align 8 dereferenceable(136) %this) #5 align 2 personality ptr @__gxx_personality_v0 {
entry:
  %this.addr.i15 = alloca ptr, align 8
  %this.addr.i13 = alloca ptr, align 8
  %this.addr.i11 = alloca ptr, align 8
  %this.addr.i9 = alloca ptr, align 8
  %this.addr.i3 = alloca ptr, align 8
  %this.addr.i = alloca ptr, align 8
  %this.addr = alloca ptr, align 8
  store ptr %this, ptr %this.addr, align 8
  %this1 = load ptr, ptr %this.addr, align 8
  %unfilledSessionList_ = getelementptr inbounds %"class.proxygen::SessionPool", ptr %this1, i32 0, i32 6
  store ptr %unfilledSessionList_, ptr %this.addr.i3, align 8
  %this1.i4 = load ptr, ptr %this.addr.i3, align 8
  store ptr %this1.i4, ptr %this.addr.i9, align 8
  %this1.i10 = load ptr, ptr %this.addr.i9, align 8
  store ptr %this1.i10, ptr %this.addr.i13, align 8
  %this1.i14 = load ptr, ptr %this.addr.i13, align 8
  %0 = load i64, ptr %this1.i14, align 8
  br label %_ZNK5boost9intrusive9list_implINS0_8mhtraitsIN8proxygen13SessionHolderENS0_16list_member_hookIJNS0_9link_modeILNS0_14link_mode_typeE1EEEEEEXadL_ZNS4_8listHookEEEEEmLb1EvE4sizeEv.exit8

terminate.lpad.i7:                                ; No predecessors!
  %1 = landingpad { ptr, i32 }
          catch ptr null
  %2 = extractvalue { ptr, i32 } %1, 0
  call void @__clang_call_terminate(ptr %2) #15
  unreachable

_ZNK5boost9intrusive9list_implINS0_8mhtraitsIN8proxygen13SessionHolderENS0_16list_member_hookIJNS0_9link_modeILNS0_14link_mode_typeE1EEEEEEXadL_ZNS4_8listHookEEEEEmLb1EvE4sizeEv.exit8: ; preds = %entry
  %fullSessionList_ = getelementptr inbounds %"class.proxygen::SessionPool", ptr %this1, i32 0, i32 7
  store ptr %fullSessionList_, ptr %this.addr.i, align 8
  %this1.i = load ptr, ptr %this.addr.i, align 8
  store ptr %this1.i, ptr %this.addr.i11, align 8
  %this1.i12 = load ptr, ptr %this.addr.i11, align 8
  store ptr %this1.i12, ptr %this.addr.i15, align 8
  %this1.i16 = load ptr, ptr %this.addr.i15, align 8
  %3 = load i64, ptr %this1.i16, align 8
  br label %_ZNK5boost9intrusive9list_implINS0_8mhtraitsIN8proxygen13SessionHolderENS0_16list_member_hookIJNS0_9link_modeILNS0_14link_mode_typeE1EEEEEEXadL_ZNS4_8listHookEEEEEmLb1EvE4sizeEv.exit

terminate.lpad.i:                                 ; No predecessors!
  %4 = landingpad { ptr, i32 }
          catch ptr null
  %5 = extractvalue { ptr, i32 } %4, 0
  call void @__clang_call_terminate(ptr %5) #15
  unreachable

_ZNK5boost9intrusive9list_implINS0_8mhtraitsIN8proxygen13SessionHolderENS0_16list_member_hookIJNS0_9link_modeILNS0_14link_mode_typeE1EEEEEEXadL_ZNS4_8listHookEEEEEmLb1EvE4sizeEv.exit: ; preds = %_ZNK5boost9intrusive9list_implINS0_8mhtraitsIN8proxygen13SessionHolderENS0_16list_member_hookIJNS0_9link_modeILNS0_14link_mode_typeE1EEEEEEXadL_ZNS4_8listHookEEEEEmLb1EvE4sizeEv.exit8
  %add = add i64 %0, %3
  %conv = trunc i64 %add to i32
  ret i32 %conv
}