; Function Attrs: mustprogress nofree norecurse nosync nounwind willreturn memory(argmem: read) uwtable
define noundef i32 @_ZNK8proxygen11SessionPool20getNumActiveSessionsEv(ptr nocapture noundef nonnull readonly align 8 dereferenceable(136) %this) local_unnamed_addr #6 align 2 personality ptr @__gxx_personality_v0 {
entry:
  %unfilledSessionList_ = getelementptr inbounds i8, ptr %this, i64 64
  %0 = load i64, ptr %unfilledSessionList_, align 8
  %fullSessionList_ = getelementptr inbounds i8, ptr %this, i64 88
  %1 = load i64, ptr %fullSessionList_, align 8
  %add = add i64 %1, %0
  %conv = trunc i64 %add to i32
  ret i32 %conv
}